target datalayout = "e-m:e-p270:32:32-p271:32:32-p272:64:64-i64:64-i128:128-f80:128-n8:16:32:64-S128"
target triple = "x86_64-pc-linux-gnu"

%struct.expert_field = type { i32, i32 }
%struct.spice_conversation_t = type { i32, i32, i32, i32, i32, i32, i32, i16, i8, i8, i8, i8 }

@hf_cursor_cap = internal global i32 0, align 4
@hf_inputs_cap = internal global i32 0, align 4
@ei_spice_unknown_channel = internal global %struct.expert_field zeroinitializer, align 4
@dissect_spice_link_capabilities.playback_cap = internal constant [5 x ptr] [ptr @hf_playback_cap_celt_0_5_1, ptr @hf_playback_cap_volume, ptr @hf_playback_cap_latency, ptr @hf_playback_cap_opus, ptr null], align 16
@dissect_spice_link_capabilities.main_cap = internal constant [5 x ptr] [ptr @hf_main_cap_semi_migrate, ptr @hf_main_cap_vm_name_uuid, ptr @hf_main_cap_agent_connected_tokens, ptr @hf_main_cap_seamless_migrate, ptr null], align 16
@dissect_spice_link_capabilities.record_cap = internal constant [4 x ptr] [ptr @hf_record_cap_celt, ptr @hf_record_cap_volume, ptr @hf_record_cap_opus, ptr null], align 16

; Function Attrs: null_pointer_is_valid sspstrong uwtable
define internal void @dissect_spice_link_capabilities(ptr noundef %0, ptr noundef %1, ptr noundef %2, i32 noundef %3, i32 noundef %4, ptr noundef %5) #0 {
  %7 = alloca ptr, align 8
  %8 = alloca ptr, align 8
  %9 = alloca ptr, align 8
  %10 = alloca i32, align 4
  %11 = alloca i32, align 4
  %12 = alloca ptr, align 8
  %13 = alloca i32, align 4
  %14 = alloca i32, align 4
  store ptr %0, ptr %7, align 8
  store ptr %1, ptr %8, align 8
  store ptr %2, ptr %9, align 8
  store i32 %3, ptr %10, align 4
  store i32 %4, ptr %11, align 4
  store ptr %5, ptr %12, align 8
  call void @llvm.lifetime.start.p0(i64 4, ptr %13) #6
  store i32 0, ptr %13, align 4
  br label %15

15:                                               ; preds = %77, %6
  %16 = load i32, ptr %13, align 4
  %17 = load i32, ptr %11, align 4
  %18 = icmp ult i32 %16, %17
  br i1 %18, label %19, label %80

19:                                               ; preds = %15
  %20 = load ptr, ptr %12, align 8
  %21 = getelementptr inbounds nuw %struct.spice_conversation_t, ptr %20, i32 0, i32 8
  %22 = load i8, ptr %21, align 2
  %23 = zext i8 %22 to i32
  switch i32 %23, label %68 [
    i32 5, label %24
    i32 1, label %32
    i32 2, label %40
    i32 3, label %48
    i32 4, label %54
    i32 6, label %60
  ]

24:                                               ; preds = %19
  %25 = load i32, ptr %13, align 4
  %26 = icmp ne i32 %25, 0
  br i1 %26, label %27, label %28

27:                                               ; preds = %24
  store i32 1, ptr %14, align 4
  br label %81

28:                                               ; preds = %24
  %29 = load ptr, ptr %9, align 8
  %30 = load ptr, ptr %7, align 8
  %31 = load i32, ptr %10, align 4
  call void @proto_tree_add_bitmask_list(ptr noundef %29, ptr noundef %30, i32 noundef %31, i32 noundef 4, ptr noundef @dissect_spice_link_capabilities.playback_cap, i32 noundef -2147483648)
  br label %74

32:                                               ; preds = %19
  %33 = load i32, ptr %13, align 4
  %34 = icmp ne i32 %33, 0
  br i1 %34, label %35, label %36

35:                                               ; preds = %32
  store i32 1, ptr %14, align 4
  br label %81

36:                                               ; preds = %32
  %37 = load ptr, ptr %9, align 8
  %38 = load ptr, ptr %7, align 8
  %39 = load i32, ptr %10, align 4
  call void @proto_tree_add_bitmask_list(ptr noundef %37, ptr noundef %38, i32 noundef %39, i32 noundef 4, ptr noundef @dissect_spice_link_capabilities.main_cap, i32 noundef -2147483648)
  br label %74

40:                                               ; preds = %19
  %41 = load i32, ptr %13, align 4
  %42 = icmp ne i32 %41, 0
  br i1 %42, label %43, label %44

43:                                               ; preds = %40
  store i32 1, ptr %14, align 4
  br label %81

44:                                               ; preds = %40
  %45 = load ptr, ptr %9, align 8
  %46 = load ptr, ptr %7, align 8
  %47 = load i32, ptr %10, align 4
  call void @proto_tree_add_bitmask_list(ptr noundef %45, ptr noundef %46, i32 noundef %47, i32 noundef 4, ptr noundef @dissect_spice_link_capabilities.display_cap, i32 noundef -2147483648)
  br label %74

48:                                               ; preds = %19
  %49 = load ptr, ptr %9, align 8
  %50 = load i32, ptr @hf_inputs_cap, align 4
  %51 = load ptr, ptr %7, align 8
  %52 = load i32, ptr %10, align 4
  %53 = call ptr @proto_tree_add_item(ptr noundef %49, i32 noundef %50, ptr noundef %51, i32 noundef %52, i32 noundef 4, i32 noundef -2147483648)
  br label %74

54:                                               ; preds = %19
  %55 = load ptr, ptr %9, align 8
  %56 = load i32, ptr @hf_cursor_cap, align 4
  %57 = load ptr, ptr %7, align 8
  %58 = load i32, ptr %10, align 4
  %59 = call ptr @proto_tree_add_item(ptr noundef %55, i32 noundef %56, ptr noundef %57, i32 noundef %58, i32 noundef 4, i32 noundef -2147483648)
  br label %74

60:                                               ; preds = %19
  %61 = load i32, ptr %13, align 4
  %62 = icmp ne i32 %61, 0
  br i1 %62, label %63, label %64

63:                                               ; preds = %60
  store i32 1, ptr %14, align 4
  br label %81

64:                                               ; preds = %60
  %65 = load ptr, ptr %9, align 8
  %66 = load ptr, ptr %7, align 8
  %67 = load i32, ptr %10, align 4
  call void @proto_tree_add_bitmask_list(ptr noundef %65, ptr noundef %66, i32 noundef %67, i32 noundef 4, ptr noundef @dissect_spice_link_capabilities.record_cap, i32 noundef -2147483648)
  br label %74

68:                                               ; preds = %19
  %69 = load ptr, ptr %9, align 8
  %70 = load ptr, ptr %8, align 8
  %71 = load ptr, ptr %7, align 8
  %72 = load i32, ptr %10, align 4
  %73 = call ptr @proto_tree_add_expert(ptr noundef %69, ptr noundef %70, ptr noundef @ei_spice_unknown_channel, ptr noundef %71, i32 noundef %72, i32 noundef -1)
  store i32 1, ptr %14, align 4
  br label %81

74:                                               ; preds = %64, %54, %48, %44, %36, %28
  %75 = load i32, ptr %10, align 4
  %76 = add i32 %75, 4
  store i32 %76, ptr %10, align 4
  br label %77

77:                                               ; preds = %74
  %78 = load i32, ptr %13, align 4
  %79 = add i32 %78, 1
  store i32 %79, ptr %13, align 4
  br label %15, !llvm.loop !15

80:                                               ; preds = %15
  store i32 0, ptr %14, align 4
  br label %81

81:                                               ; preds = %80, %68, %63, %43, %35, %27
  call void @llvm.lifetime.end.p0(i64 4, ptr %13) #6
  %82 = load i32, ptr %14, align 4
  switch i32 %82, label %84 [
    i32 0, label %83
    i32 1, label %83
  ]

83:                                               ; preds = %81, %81
  ret void

84:                                               ; preds = %81
  unreachable
}