; Function Attrs: null_pointer_is_valid sspstrong uwtable
define internal fastcc void @dissect_spice_link_capabilities(ptr noundef %0, ptr noundef %1, ptr noundef %2, i32 noundef %3, i32 noundef range(i32 1, 0) %4, ptr noundef readonly captures(none) %5) unnamed_addr #0 {
  %7 = getelementptr inbounds nuw i8, ptr %5, i64 30
  br label %8

8:                                                ; preds = %6, %26
  %.036 = phi i32 [ 0, %6 ], [ %28, %26 ]
  %.03035 = phi i32 [ %3, %6 ], [ %27, %26 ]
  %9 = load i8, ptr %7, align 2
  switch i8 %9, label %24 [
    i8 5, label %10
    i8 1, label %12
    i8 2, label %14
    i8 3, label %16
    i8 4, label %19
    i8 6, label %22
  ]

10:                                               ; preds = %8
  %.not33 = icmp eq i32 %.036, 0
  br i1 %.not33, label %11, label %.loopexit

11:                                               ; preds = %10
  tail call void @proto_tree_add_bitmask_list(ptr noundef %2, ptr noundef %0, i32 noundef %.03035, i32 noundef 4, ptr noundef nonnull @dissect_spice_link_capabilities.playback_cap, i32 noundef -2147483648)
  br label %26

12:                                               ; preds = %8
  %.not32 = icmp eq i32 %.036, 0
  br i1 %.not32, label %13, label %.loopexit

13:                                               ; preds = %12
  tail call void @proto_tree_add_bitmask_list(ptr noundef %2, ptr noundef %0, i32 noundef %.03035, i32 noundef 4, ptr noundef nonnull @dissect_spice_link_capabilities.main_cap, i32 noundef -2147483648)
  br label %26

14:                                               ; preds = %8
  %.not31 = icmp eq i32 %.036, 0
  br i1 %.not31, label %15, label %.loopexit

15:                                               ; preds = %14
  tail call void @proto_tree_add_bitmask_list(ptr noundef %2, ptr noundef %0, i32 noundef %.03035, i32 noundef 4, ptr noundef nonnull @dissect_spice_link_capabilities.display_cap, i32 noundef -2147483648)
  br label %26

16:                                               ; preds = %8
  %17 = load i32, ptr @hf_inputs_cap, align 4
  %18 = tail call ptr @proto_tree_add_item(ptr noundef %2, i32 noundef %17, ptr noundef %0, i32 noundef %.03035, i32 noundef 4, i32 noundef -2147483648)
  br label %26

19:                                               ; preds = %8
  %20 = load i32, ptr @hf_cursor_cap, align 4
  %21 = tail call ptr @proto_tree_add_item(ptr noundef %2, i32 noundef %20, ptr noundef %0, i32 noundef %.03035, i32 noundef 4, i32 noundef -2147483648)
  br label %26

22:                                               ; preds = %8
  %.not = icmp eq i32 %.036, 0
  br i1 %.not, label %23, label %.loopexit

23:                                               ; preds = %22
  tail call void @proto_tree_add_bitmask_list(ptr noundef %2, ptr noundef %0, i32 noundef %.03035, i32 noundef 4, ptr noundef nonnull @dissect_spice_link_capabilities.record_cap, i32 noundef -2147483648)
  br label %26

24:                                               ; preds = %8
  %25 = tail call ptr @proto_tree_add_expert(ptr noundef %2, ptr noundef %1, ptr noundef nonnull @ei_spice_unknown_channel, ptr noundef %0, i32 noundef %.03035, i32 noundef -1)
  br label %.loopexit

26:                                               ; preds = %23, %19, %16, %15, %13, %11
  %27 = add i32 %.03035, 4
  %28 = add nuw i32 %.036, 1
  %exitcond.not = icmp eq i32 %28, %4
  br i1 %exitcond.not, label %.loopexit, label %8, !llvm.loop !20

.loopexit:                                        ; preds = %26, %22, %14, %12, %10, %24
  ret void
}